; Function Attrs: nounwind uwtable
define dso_local void @syncrep_yyerror(ptr noundef readnone captures(none) %0, ptr noundef readonly captures(none) %1, ptr noundef readonly captures(none) %2, ptr noundef %3) local_unnamed_addr #0 {
  %5 = load ptr, ptr %1, align 8
  %.not = icmp eq ptr %5, null
  br i1 %.not, label %6, label %14

6:                                                ; preds = %4
  %7 = getelementptr inbounds nuw i8, ptr %2, i64 128
  %8 = load ptr, ptr %7, align 8
  %9 = load i8, ptr %8, align 1
  %.not7 = icmp eq i8 %9, 0
  br i1 %.not7, label %12, label %10

10:                                               ; preds = %6
  %11 = tail call ptr (ptr, ...) @psprintf(ptr noundef nonnull @.str.10, ptr noundef %3, ptr noundef nonnull %8) #15
  br label %14

12:                                               ; preds = %6
  %13 = tail call ptr (ptr, ...) @psprintf(ptr noundef nonnull @.str.11, ptr noundef %3) #15
  br label %14

14:                                               ; preds = %10, %12, %4
  ret void
}